target datalayout = "e-m:e-p270:32:32-p271:32:32-p272:64:64-i64:64-i128:128-f80:128-n8:16:32:64-S128"
target triple = "x86_64-pc-linux-gnu"

@environ = external global ptr, align 8
@.str.88 = private unnamed_addr constant [3 x i8] c"sh\00", align 1
@.str.89 = private unnamed_addr constant [3 x i8] c"-c\00", align 1
@.str.90 = private unnamed_addr constant [8 x i8] c"/bin/sh\00", align 1

; Function Attrs: mustprogress nounwind uwtable
define hidden noundef ptr @_ZN2os11get_environEv() #1 align 2 {
  %1 = load ptr, ptr @environ, align 8
  ret ptr %1
}

; Function Attrs: mustprogress nounwind uwtable
define hidden noundef i32 @_ZN2os13fork_and_execEPKc(ptr noundef %0) #1 align 2 {
  %2 = alloca i32, align 4
  %3 = alloca ptr, align 8
  %4 = alloca [4 x ptr], align 16
  %5 = alloca i32, align 4
  %6 = alloca ptr, align 8
  %7 = alloca i32, align 4
  %8 = alloca i32, align 4
  store ptr %0, ptr %3, align 8
  store ptr @.str.88, ptr %4, align 8
  %9 = getelementptr inbounds ptr, ptr %4, i64 1
  store ptr @.str.89, ptr %9, align 8
  %10 = getelementptr inbounds ptr, ptr %4, i64 2
  %11 = load ptr, ptr %3, align 8
  store ptr %11, ptr %10, align 8
  %12 = getelementptr inbounds ptr, ptr %4, i64 3
  store ptr null, ptr %12, align 8
  store i32 -1, ptr %5, align 4
  %13 = call noundef ptr @_ZN2os11get_environEv()
  store ptr %13, ptr %6, align 8
  %14 = getelementptr inbounds [4 x ptr], ptr %4, i64 0, i64 0
  %15 = load ptr, ptr %6, align 8
  %16 = call i32 @posix_spawn(ptr noundef %5, ptr noundef @.str.90, ptr noundef null, ptr noundef null, ptr noundef %14, ptr noundef %15)
  store i32 %16, ptr %7, align 4
  %17 = load i32, ptr %7, align 4
  %18 = icmp eq i32 %17, 0
  br i1 %18, label %19, label %53

19:                                               ; preds = %1
  br label %20

20:                                               ; preds = %30, %19
  %21 = load i32, ptr %5, align 4
  %22 = call i32 @waitpid(i32 noundef %21, ptr noundef %8, i32 noundef 0)
  %23 = icmp slt i32 %22, 0
  br i1 %23, label %24, label %31

24:                                               ; preds = %20
  %25 = call ptr @__errno_location() #14
  %26 = load i32, ptr %25, align 4
  switch i32 %26, label %29 [
    i32 10, label %27
    i32 4, label %28
  ]

27:                                               ; preds = %24
  store i32 0, ptr %2, align 4
  br label %54

28:                                               ; preds = %24
  br label %30

29:                                               ; preds = %24
  store i32 -1, ptr %2, align 4
  br label %54

30:                                               ; preds = %28
  br label %20, !llvm.loop !26

31:                                               ; preds = %20
  %32 = load i32, ptr %8, align 4
  %33 = and i32 %32, 127
  %34 = icmp eq i32 %33, 0
  br i1 %34, label %35, label %39

35:                                               ; preds = %31
  %36 = load i32, ptr %8, align 4
  %37 = and i32 %36, 65280
  %38 = ashr i32 %37, 8
  store i32 %38, ptr %2, align 4
  br label %54

39:                                               ; preds = %31
  %40 = load i32, ptr %8, align 4
  %41 = and i32 %40, 127
  %42 = add nsw i32 %41, 1
  %43 = trunc i32 %42 to i8
  %44 = sext i8 %43 to i32
  %45 = ashr i32 %44, 1
  %46 = icmp sgt i32 %45, 0
  br i1 %46, label %47, label %51

47:                                               ; preds = %39
  %48 = load i32, ptr %8, align 4
  %49 = and i32 %48, 127
  %50 = add nsw i32 128, %49
  store i32 %50, ptr %2, align 4
  br label %54

51:                                               ; preds = %39
  %52 = load i32, ptr %8, align 4
  store i32 %52, ptr %2, align 4
  br label %54

53:                                               ; preds = %1
  store i32 -1, ptr %2, align 4
  br label %54

54:                                               ; preds = %53, %51, %47, %35, %29, %27
  %55 = load i32, ptr %2, align 4
  ret i32 %55
}