; Function Attrs: mustprogress nounwind uwtable
define hidden noundef i32 @_ZN2os13fork_and_execEPKc(ptr noundef %0) local_unnamed_addr #1 align 2 {
  %2 = alloca [4 x ptr], align 16
  %3 = alloca i32, align 4
  %4 = alloca i32, align 4
  store ptr @.str.88, ptr %2, align 16
  %5 = getelementptr inbounds i8, ptr %2, i64 8
  store ptr @.str.89, ptr %5, align 8
  %6 = getelementptr inbounds i8, ptr %2, i64 16
  store ptr %0, ptr %6, align 16
  %7 = getelementptr inbounds i8, ptr %2, i64 24
  store ptr null, ptr %7, align 8
  store i32 -1, ptr %3, align 4
  %8 = load ptr, ptr @environ, align 8
  %9 = call i32 @posix_spawn(ptr noundef nonnull %3, ptr noundef nonnull @.str.90, ptr noundef null, ptr noundef null, ptr noundef nonnull %2, ptr noundef %8) #25
  %10 = icmp eq i32 %9, 0
  br i1 %10, label %.preheader, label %.loopexit

.preheader:                                       ; preds = %1, %14
  %11 = load i32, ptr %3, align 4
  %12 = call i32 @waitpid(i32 noundef %11, ptr noundef nonnull %4, i32 noundef 0) #25
  %13 = icmp slt i32 %12, 0
  br i1 %13, label %14, label %17

14:                                               ; preds = %.preheader
  %15 = tail call ptr @__errno_location() #26
  %16 = load i32, ptr %15, align 4
  switch i32 %16, label %.loopexit [
    i32 10, label %.loopexit.loopexit
    i32 4, label %.preheader
  ], !llvm.loop !29

17:                                               ; preds = %.preheader
  %18 = load i32, ptr %4, align 4
  %19 = and i32 %18, 127
  %20 = icmp eq i32 %19, 0
  br i1 %20, label %21, label %24

21:                                               ; preds = %17
  %22 = lshr i32 %18, 8
  %23 = and i32 %22, 255
  br label %.loopexit

24:                                               ; preds = %17
  %25 = shl nuw nsw i32 %19, 24
  %sext = add nuw i32 %25, 16777216
  %26 = icmp sgt i32 %sext, 33554431
  %27 = or disjoint i32 %19, 128
  %spec.select = select i1 %26, i32 %27, i32 %18
  br label %.loopexit

.loopexit.loopexit:                               ; preds = %14
  br label %.loopexit

.loopexit:                                        ; preds = %14, %.loopexit.loopexit, %24, %1, %21
  %.0 = phi i32 [ %23, %21 ], [ -1, %1 ], [ %spec.select, %24 ], [ 0, %.loopexit.loopexit ], [ -1, %14 ]
  ret i32 %.0
}